; Function Attrs: mustprogress nofree norecurse nosync nounwind willreturn memory(read, inaccessiblemem: none) uwtable
define internal noundef zeroext i1 @"_ZNSt17_Function_handlerIFbRKN4llvm13LegalityQueryEEZNS0_16X86LegalizerInfoC1ERKNS0_12X86SubtargetERKNS0_16X86TargetMachineEE4$_10E9_M_invokeERKSt9_Any_dataS3_"(ptr noundef nonnull readonly align 8 captures(none) dereferenceable(16) %0, ptr noundef nonnull readonly align 8 captures(none) dereferenceable(40) %1) #12 align 2 {
  %.val = load ptr, ptr %0, align 8
  %3 = getelementptr inbounds nuw i8, ptr %1, i64 8
  %.val2 = load ptr, ptr %3, align 8
  %.val2.val = load i64, ptr %.val2, align 8
  %4 = load i64, ptr %.val, align 8
  %spec.select.i.i.i.i = icmp eq i64 %.val2.val, %4
  br i1 %spec.select.i.i.i.i, label %"_ZSt10__invoke_rIbRZN4llvm16X86LegalizerInfoC1ERKNS0_12X86SubtargetERKNS0_16X86TargetMachineEE4$_10JRKNS0_13LegalityQueryEEENSt9enable_ifIX16is_invocable_r_vIT_T0_DpT1_EESE_E4typeEOSF_DpOSG_.exit", label %5

5:                                                ; preds = %2
  %6 = getelementptr inbounds nuw i8, ptr %.val, i64 8
  %7 = load ptr, ptr %6, align 8
  %8 = getelementptr inbounds nuw i8, ptr %7, i64 121040
  %9 = load ptr, ptr %8, align 8
  %10 = getelementptr inbounds nuw i8, ptr %9, i64 455
  %11 = load i8, ptr %10, align 1
  %12 = trunc i8 %11 to i1
  br i1 %12, label %13, label %"_ZSt10__invoke_rIbRZN4llvm16X86LegalizerInfoC1ERKNS0_12X86SubtargetERKNS0_16X86TargetMachineEE4$_10JRKNS0_13LegalityQueryEEENSt9enable_ifIX16is_invocable_r_vIT_T0_DpT1_EESE_E4typeEOSF_DpOSG_.exit"

13:                                               ; preds = %5
  %14 = getelementptr inbounds nuw i8, ptr %.val, i64 16
  %15 = load i64, ptr %14, align 8
  %spec.select.i3.i.i.i = icmp eq i64 %.val2.val, %15
  br label %"_ZSt10__invoke_rIbRZN4llvm16X86LegalizerInfoC1ERKNS0_12X86SubtargetERKNS0_16X86TargetMachineEE4$_10JRKNS0_13LegalityQueryEEENSt9enable_ifIX16is_invocable_r_vIT_T0_DpT1_EESE_E4typeEOSF_DpOSG_.exit"

"_ZSt10__invoke_rIbRZN4llvm16X86LegalizerInfoC1ERKNS0_12X86SubtargetERKNS0_16X86TargetMachineEE4$_10JRKNS0_13LegalityQueryEEENSt9enable_ifIX16is_invocable_r_vIT_T0_DpT1_EESE_E4typeEOSF_DpOSG_.exit": ; preds = %2, %5, %13
  %16 = phi i1 [ true, %2 ], [ false, %5 ], [ %spec.select.i3.i.i.i, %13 ]
  ret i1 %16
}